; Function Attrs: mustprogress uwtable
define void @Z3_interrupt(ptr noundef %0) local_unnamed_addr #3 personality ptr @__gxx_personality_v0 {
  %2 = atomicrmw xchg ptr @g_z3_log_enabled, i8 0 seq_cst, align 1
  %3 = trunc i8 %2 to i1
  br i1 %3, label %4, label %17

4:                                                ; preds = %1
  invoke void @_Z16log_Z3_interruptP11_Z3_context(ptr noundef %0)
          to label %17 unwind label %.thread

.thread:                                          ; preds = %4
  %5 = landingpad { ptr, i32 }
          cleanup
          catch ptr @_ZTI12z3_exception
  %6 = extractvalue { ptr, i32 } %5, 1
  br label %10

7:                                                ; preds = %17
  %8 = landingpad { ptr, i32 }
          cleanup
          catch ptr @_ZTI12z3_exception
  %9 = extractvalue { ptr, i32 } %8, 1
  br i1 %3, label %10, label %_ZN10z3_log_ctxD2Ev.exit, !prof !550

10:                                               ; preds = %.thread, %7
  %11 = phi i32 [ %6, %.thread ], [ %9, %7 ]
  %12 = phi { ptr, i32 } [ %5, %.thread ], [ %8, %7 ]
  store atomic i8 1, ptr @g_z3_log_enabled seq_cst, align 1
  br label %_ZN10z3_log_ctxD2Ev.exit

_ZN10z3_log_ctxD2Ev.exit:                         ; preds = %7, %10
  %13 = phi i32 [ %9, %7 ], [ %11, %10 ]
  %14 = phi { ptr, i32 } [ %8, %7 ], [ %12, %10 ]
  %15 = tail call i32 @llvm.eh.typeid.for.p0(ptr nonnull @_ZTI12z3_exception) #28
  %16 = icmp eq i32 %13, %15
  br i1 %16, label %20, label %26

17:                                               ; preds = %4, %1
  invoke void @_ZN3api7context9interruptEv(ptr noundef nonnull align 8 dereferenceable(3056) %0)
          to label %18 unwind label %7

18:                                               ; preds = %17
  br i1 %3, label %19, label %_ZN10z3_log_ctxD2Ev.exit9, !prof !442

19:                                               ; preds = %18
  store atomic i8 1, ptr @g_z3_log_enabled seq_cst, align 1
  br label %_ZN10z3_log_ctxD2Ev.exit9

20:                                               ; preds = %_ZN10z3_log_ctxD2Ev.exit
  %21 = extractvalue { ptr, i32 } %14, 0
  %22 = tail call ptr @__cxa_begin_catch(ptr %21) #28
  invoke void @_ZN3api7context16handle_exceptionER12z3_exception(ptr noundef nonnull align 8 dereferenceable(3056) %0, ptr noundef nonnull align 8 dereferenceable(8) %22)
          to label %23 unwind label %24

23:                                               ; preds = %20
  tail call void @__cxa_end_catch()
  br label %_ZN10z3_log_ctxD2Ev.exit9

24:                                               ; preds = %20
  %25 = landingpad { ptr, i32 }
          cleanup
  invoke void @__cxa_end_catch()
          to label %26 unwind label %27

_ZN10z3_log_ctxD2Ev.exit9:                        ; preds = %19, %18, %23
  ret void

26:                                               ; preds = %24, %_ZN10z3_log_ctxD2Ev.exit
  %.merged = phi { ptr, i32 } [ %14, %_ZN10z3_log_ctxD2Ev.exit ], [ %25, %24 ]
  resume { ptr, i32 } %.merged

27:                                               ; preds = %24
  %28 = landingpad { ptr, i32 }
          catch ptr null
  %29 = extractvalue { ptr, i32 } %28, 0
  tail call void @__clang_call_terminate(ptr %29) #32
  unreachable
}